target datalayout = "e-m:e-p270:32:32-p271:32:32-p272:64:64-i64:64-i128:128-f80:128-n8:16:32:64-S128"
target triple = "x86_64-pc-linux-gnu"

@.str.63 = private unnamed_addr constant [11 x i8] c" (default)\00", align 1
@.str.64 = private unnamed_addr constant [7 x i8] c" (dub)\00", align 1
@.str.65 = private unnamed_addr constant [12 x i8] c" (original)\00", align 1
@.str.66 = private unnamed_addr constant [11 x i8] c" (comment)\00", align 1
@.str.67 = private unnamed_addr constant [10 x i8] c" (lyrics)\00", align 1
@.str.68 = private unnamed_addr constant [11 x i8] c" (karaoke)\00", align 1
@.str.69 = private unnamed_addr constant [10 x i8] c" (forced)\00", align 1
@.str.70 = private unnamed_addr constant [20 x i8] c" (hearing impaired)\00", align 1
@.str.71 = private unnamed_addr constant [19 x i8] c" (visual impaired)\00", align 1
@.str.72 = private unnamed_addr constant [17 x i8] c" (clean effects)\00", align 1
@.str.73 = private unnamed_addr constant [16 x i8] c" (attached pic)\00", align 1
@.str.74 = private unnamed_addr constant [20 x i8] c" (timed thumbnails)\00", align 1
@.str.75 = private unnamed_addr constant [12 x i8] c" (captions)\00", align 1
@.str.76 = private unnamed_addr constant [16 x i8] c" (descriptions)\00", align 1
@.str.77 = private unnamed_addr constant [12 x i8] c" (metadata)\00", align 1
@.str.78 = private unnamed_addr constant [13 x i8] c" (dependent)\00", align 1
@.str.79 = private unnamed_addr constant [15 x i8] c" (still image)\00", align 1
@.str.80 = private unnamed_addr constant [16 x i8] c" (non-diegetic)\00", align 1
@.str.81 = private unnamed_addr constant [14 x i8] c" (multilayer)\00", align 1

; Function Attrs: nounwind uwtable
define internal void @dump_disposition(i32 noundef %0, i32 noundef %1) #0 {
  %3 = alloca i32, align 4
  %4 = alloca i32, align 4
  store i32 %0, ptr %3, align 4, !tbaa !11
  store i32 %1, ptr %4, align 4, !tbaa !11
  %5 = load i32, ptr %3, align 4, !tbaa !11
  %6 = and i32 %5, 1
  %7 = icmp ne i32 %6, 0
  br i1 %7, label %8, label %10

8:                                                ; preds = %2
  %9 = load i32, ptr %4, align 4, !tbaa !11
  call void (ptr, i32, ptr, ...) @av_log(ptr noundef null, i32 noundef %9, ptr noundef @.str.63)
  br label %10

10:                                               ; preds = %8, %2
  %11 = load i32, ptr %3, align 4, !tbaa !11
  %12 = and i32 %11, 2
  %13 = icmp ne i32 %12, 0
  br i1 %13, label %14, label %16

14:                                               ; preds = %10
  %15 = load i32, ptr %4, align 4, !tbaa !11
  call void (ptr, i32, ptr, ...) @av_log(ptr noundef null, i32 noundef %15, ptr noundef @.str.64)
  br label %16

16:                                               ; preds = %14, %10
  %17 = load i32, ptr %3, align 4, !tbaa !11
  %18 = and i32 %17, 4
  %19 = icmp ne i32 %18, 0
  br i1 %19, label %20, label %22

20:                                               ; preds = %16
  %21 = load i32, ptr %4, align 4, !tbaa !11
  call void (ptr, i32, ptr, ...) @av_log(ptr noundef null, i32 noundef %21, ptr noundef @.str.65)
  br label %22

22:                                               ; preds = %20, %16
  %23 = load i32, ptr %3, align 4, !tbaa !11
  %24 = and i32 %23, 8
  %25 = icmp ne i32 %24, 0
  br i1 %25, label %26, label %28

26:                                               ; preds = %22
  %27 = load i32, ptr %4, align 4, !tbaa !11
  call void (ptr, i32, ptr, ...) @av_log(ptr noundef null, i32 noundef %27, ptr noundef @.str.66)
  br label %28

28:                                               ; preds = %26, %22
  %29 = load i32, ptr %3, align 4, !tbaa !11
  %30 = and i32 %29, 16
  %31 = icmp ne i32 %30, 0
  br i1 %31, label %32, label %34

32:                                               ; preds = %28
  %33 = load i32, ptr %4, align 4, !tbaa !11
  call void (ptr, i32, ptr, ...) @av_log(ptr noundef null, i32 noundef %33, ptr noundef @.str.67)
  br label %34

34:                                               ; preds = %32, %28
  %35 = load i32, ptr %3, align 4, !tbaa !11
  %36 = and i32 %35, 32
  %37 = icmp ne i32 %36, 0
  br i1 %37, label %38, label %40

38:                                               ; preds = %34
  %39 = load i32, ptr %4, align 4, !tbaa !11
  call void (ptr, i32, ptr, ...) @av_log(ptr noundef null, i32 noundef %39, ptr noundef @.str.68)
  br label %40

40:                                               ; preds = %38, %34
  %41 = load i32, ptr %3, align 4, !tbaa !11
  %42 = and i32 %41, 64
  %43 = icmp ne i32 %42, 0
  br i1 %43, label %44, label %46

44:                                               ; preds = %40
  %45 = load i32, ptr %4, align 4, !tbaa !11
  call void (ptr, i32, ptr, ...) @av_log(ptr noundef null, i32 noundef %45, ptr noundef @.str.69)
  br label %46

46:                                               ; preds = %44, %40
  %47 = load i32, ptr %3, align 4, !tbaa !11
  %48 = and i32 %47, 128
  %49 = icmp ne i32 %48, 0
  br i1 %49, label %50, label %52

50:                                               ; preds = %46
  %51 = load i32, ptr %4, align 4, !tbaa !11
  call void (ptr, i32, ptr, ...) @av_log(ptr noundef null, i32 noundef %51, ptr noundef @.str.70)
  br label %52

52:                                               ; preds = %50, %46
  %53 = load i32, ptr %3, align 4, !tbaa !11
  %54 = and i32 %53, 256
  %55 = icmp ne i32 %54, 0
  br i1 %55, label %56, label %58

56:                                               ; preds = %52
  %57 = load i32, ptr %4, align 4, !tbaa !11
  call void (ptr, i32, ptr, ...) @av_log(ptr noundef null, i32 noundef %57, ptr noundef @.str.71)
  br label %58

58:                                               ; preds = %56, %52
  %59 = load i32, ptr %3, align 4, !tbaa !11
  %60 = and i32 %59, 512
  %61 = icmp ne i32 %60, 0
  br i1 %61, label %62, label %64

62:                                               ; preds = %58
  %63 = load i32, ptr %4, align 4, !tbaa !11
  call void (ptr, i32, ptr, ...) @av_log(ptr noundef null, i32 noundef %63, ptr noundef @.str.72)
  br label %64

64:                                               ; preds = %62, %58
  %65 = load i32, ptr %3, align 4, !tbaa !11
  %66 = and i32 %65, 1024
  %67 = icmp ne i32 %66, 0
  br i1 %67, label %68, label %70

68:                                               ; preds = %64
  %69 = load i32, ptr %4, align 4, !tbaa !11
  call void (ptr, i32, ptr, ...) @av_log(ptr noundef null, i32 noundef %69, ptr noundef @.str.73)
  br label %70

70:                                               ; preds = %68, %64
  %71 = load i32, ptr %3, align 4, !tbaa !11
  %72 = and i32 %71, 2048
  %73 = icmp ne i32 %72, 0
  br i1 %73, label %74, label %76

74:                                               ; preds = %70
  %75 = load i32, ptr %4, align 4, !tbaa !11
  call void (ptr, i32, ptr, ...) @av_log(ptr noundef null, i32 noundef %75, ptr noundef @.str.74)
  br label %76

76:                                               ; preds = %74, %70
  %77 = load i32, ptr %3, align 4, !tbaa !11
  %78 = and i32 %77, 65536
  %79 = icmp ne i32 %78, 0
  br i1 %79, label %80, label %82

80:                                               ; preds = %76
  %81 = load i32, ptr %4, align 4, !tbaa !11
  call void (ptr, i32, ptr, ...) @av_log(ptr noundef null, i32 noundef %81, ptr noundef @.str.75)
  br label %82

82:                                               ; preds = %80, %76
  %83 = load i32, ptr %3, align 4, !tbaa !11
  %84 = and i32 %83, 131072
  %85 = icmp ne i32 %84, 0
  br i1 %85, label %86, label %88

86:                                               ; preds = %82
  %87 = load i32, ptr %4, align 4, !tbaa !11
  call void (ptr, i32, ptr, ...) @av_log(ptr noundef null, i32 noundef %87, ptr noundef @.str.76)
  br label %88

88:                                               ; preds = %86, %82
  %89 = load i32, ptr %3, align 4, !tbaa !11
  %90 = and i32 %89, 262144
  %91 = icmp ne i32 %90, 0
  br i1 %91, label %92, label %94

92:                                               ; preds = %88
  %93 = load i32, ptr %4, align 4, !tbaa !11
  call void (ptr, i32, ptr, ...) @av_log(ptr noundef null, i32 noundef %93, ptr noundef @.str.77)
  br label %94

94:                                               ; preds = %92, %88
  %95 = load i32, ptr %3, align 4, !tbaa !11
  %96 = and i32 %95, 524288
  %97 = icmp ne i32 %96, 0
  br i1 %97, label %98, label %100

98:                                               ; preds = %94
  %99 = load i32, ptr %4, align 4, !tbaa !11
  call void (ptr, i32, ptr, ...) @av_log(ptr noundef null, i32 noundef %99, ptr noundef @.str.78)
  br label %100

100:                                              ; preds = %98, %94
  %101 = load i32, ptr %3, align 4, !tbaa !11
  %102 = and i32 %101, 1048576
  %103 = icmp ne i32 %102, 0
  br i1 %103, label %104, label %106

104:                                              ; preds = %100
  %105 = load i32, ptr %4, align 4, !tbaa !11
  call void (ptr, i32, ptr, ...) @av_log(ptr noundef null, i32 noundef %105, ptr noundef @.str.79)
  br label %106

106:                                              ; preds = %104, %100
  %107 = load i32, ptr %3, align 4, !tbaa !11
  %108 = and i32 %107, 4096
  %109 = icmp ne i32 %108, 0
  br i1 %109, label %110, label %112

110:                                              ; preds = %106
  %111 = load i32, ptr %4, align 4, !tbaa !11
  call void (ptr, i32, ptr, ...) @av_log(ptr noundef null, i32 noundef %111, ptr noundef @.str.80)
  br label %112

112:                                              ; preds = %110, %106
  %113 = load i32, ptr %3, align 4, !tbaa !11
  %114 = and i32 %113, 2097152
  %115 = icmp ne i32 %114, 0
  br i1 %115, label %116, label %118

116:                                              ; preds = %112
  %117 = load i32, ptr %4, align 4, !tbaa !11
  call void (ptr, i32, ptr, ...) @av_log(ptr noundef null, i32 noundef %117, ptr noundef @.str.81)
  br label %118

118:                                              ; preds = %116, %112
  ret void
}