; Function Attrs: nounwind uwtable
define internal fastcc void @dump_disposition(i32 noundef %0, i32 noundef range(i32 32, 41) %1) unnamed_addr #0 {
  %3 = and i32 %0, 1
  %.not = icmp eq i32 %3, 0
  br i1 %.not, label %5, label %4

4:                                                ; preds = %2
  tail call void (ptr, i32, ptr, ...) @av_log(ptr noundef null, i32 noundef %1, ptr noundef nonnull @.str.63) #9
  br label %5

5:                                                ; preds = %4, %2
  %6 = and i32 %0, 2
  %.not38 = icmp eq i32 %6, 0
  br i1 %.not38, label %8, label %7

7:                                                ; preds = %5
  tail call void (ptr, i32, ptr, ...) @av_log(ptr noundef null, i32 noundef %1, ptr noundef nonnull @.str.64) #9
  br label %8

8:                                                ; preds = %7, %5
  %9 = and i32 %0, 4
  %.not39 = icmp eq i32 %9, 0
  br i1 %.not39, label %11, label %10

10:                                               ; preds = %8
  tail call void (ptr, i32, ptr, ...) @av_log(ptr noundef null, i32 noundef %1, ptr noundef nonnull @.str.65) #9
  br label %11

11:                                               ; preds = %10, %8
  %12 = and i32 %0, 8
  %.not40 = icmp eq i32 %12, 0
  br i1 %.not40, label %14, label %13

13:                                               ; preds = %11
  tail call void (ptr, i32, ptr, ...) @av_log(ptr noundef null, i32 noundef %1, ptr noundef nonnull @.str.66) #9
  br label %14

14:                                               ; preds = %13, %11
  %15 = and i32 %0, 16
  %.not41 = icmp eq i32 %15, 0
  br i1 %.not41, label %17, label %16

16:                                               ; preds = %14
  tail call void (ptr, i32, ptr, ...) @av_log(ptr noundef null, i32 noundef %1, ptr noundef nonnull @.str.67) #9
  br label %17

17:                                               ; preds = %16, %14
  %18 = and i32 %0, 32
  %.not42 = icmp eq i32 %18, 0
  br i1 %.not42, label %20, label %19

19:                                               ; preds = %17
  tail call void (ptr, i32, ptr, ...) @av_log(ptr noundef null, i32 noundef %1, ptr noundef nonnull @.str.68) #9
  br label %20

20:                                               ; preds = %19, %17
  %21 = and i32 %0, 64
  %.not43 = icmp eq i32 %21, 0
  br i1 %.not43, label %23, label %22

22:                                               ; preds = %20
  tail call void (ptr, i32, ptr, ...) @av_log(ptr noundef null, i32 noundef %1, ptr noundef nonnull @.str.69) #9
  br label %23

23:                                               ; preds = %22, %20
  %24 = and i32 %0, 128
  %.not44 = icmp eq i32 %24, 0
  br i1 %.not44, label %26, label %25

25:                                               ; preds = %23
  tail call void (ptr, i32, ptr, ...) @av_log(ptr noundef null, i32 noundef %1, ptr noundef nonnull @.str.70) #9
  br label %26

26:                                               ; preds = %25, %23
  %27 = and i32 %0, 256
  %.not45 = icmp eq i32 %27, 0
  br i1 %.not45, label %29, label %28

28:                                               ; preds = %26
  tail call void (ptr, i32, ptr, ...) @av_log(ptr noundef null, i32 noundef %1, ptr noundef nonnull @.str.71) #9
  br label %29

29:                                               ; preds = %28, %26
  %30 = and i32 %0, 512
  %.not46 = icmp eq i32 %30, 0
  br i1 %.not46, label %32, label %31

31:                                               ; preds = %29
  tail call void (ptr, i32, ptr, ...) @av_log(ptr noundef null, i32 noundef %1, ptr noundef nonnull @.str.72) #9
  br label %32

32:                                               ; preds = %31, %29
  %33 = and i32 %0, 1024
  %.not47 = icmp eq i32 %33, 0
  br i1 %.not47, label %35, label %34

34:                                               ; preds = %32
  tail call void (ptr, i32, ptr, ...) @av_log(ptr noundef null, i32 noundef %1, ptr noundef nonnull @.str.73) #9
  br label %35

35:                                               ; preds = %34, %32
  %36 = and i32 %0, 2048
  %.not48 = icmp eq i32 %36, 0
  br i1 %.not48, label %38, label %37

37:                                               ; preds = %35
  tail call void (ptr, i32, ptr, ...) @av_log(ptr noundef null, i32 noundef %1, ptr noundef nonnull @.str.74) #9
  br label %38

38:                                               ; preds = %37, %35
  %39 = and i32 %0, 65536
  %.not49 = icmp eq i32 %39, 0
  br i1 %.not49, label %41, label %40

40:                                               ; preds = %38
  tail call void (ptr, i32, ptr, ...) @av_log(ptr noundef null, i32 noundef %1, ptr noundef nonnull @.str.75) #9
  br label %41

41:                                               ; preds = %40, %38
  %42 = and i32 %0, 131072
  %.not50 = icmp eq i32 %42, 0
  br i1 %.not50, label %44, label %43

43:                                               ; preds = %41
  tail call void (ptr, i32, ptr, ...) @av_log(ptr noundef null, i32 noundef %1, ptr noundef nonnull @.str.76) #9
  br label %44

44:                                               ; preds = %43, %41
  %45 = and i32 %0, 262144
  %.not51 = icmp eq i32 %45, 0
  br i1 %.not51, label %47, label %46

46:                                               ; preds = %44
  tail call void (ptr, i32, ptr, ...) @av_log(ptr noundef null, i32 noundef %1, ptr noundef nonnull @.str.77) #9
  br label %47

47:                                               ; preds = %46, %44
  %48 = and i32 %0, 524288
  %.not52 = icmp eq i32 %48, 0
  br i1 %.not52, label %50, label %49

49:                                               ; preds = %47
  tail call void (ptr, i32, ptr, ...) @av_log(ptr noundef null, i32 noundef %1, ptr noundef nonnull @.str.78) #9
  br label %50

50:                                               ; preds = %49, %47
  %51 = and i32 %0, 1048576
  %.not53 = icmp eq i32 %51, 0
  br i1 %.not53, label %53, label %52

52:                                               ; preds = %50
  tail call void (ptr, i32, ptr, ...) @av_log(ptr noundef null, i32 noundef %1, ptr noundef nonnull @.str.79) #9
  br label %53

53:                                               ; preds = %52, %50
  %54 = and i32 %0, 4096
  %.not54 = icmp eq i32 %54, 0
  br i1 %.not54, label %56, label %55

55:                                               ; preds = %53
  tail call void (ptr, i32, ptr, ...) @av_log(ptr noundef null, i32 noundef %1, ptr noundef nonnull @.str.80) #9
  br label %56

56:                                               ; preds = %55, %53
  %57 = and i32 %0, 2097152
  %.not55 = icmp eq i32 %57, 0
  br i1 %.not55, label %59, label %58

58:                                               ; preds = %56
  tail call void (ptr, i32, ptr, ...) @av_log(ptr noundef null, i32 noundef %1, ptr noundef nonnull @.str.81) #9
  br label %59

59:                                               ; preds = %58, %56
  ret void
}